target datalayout = "e-m:e-p270:32:32-p271:32:32-p272:64:64-i64:64-i128:128-f80:128-n8:16:32:64-S128"
target triple = "x86_64-pc-linux-gnu"

%"class.llvm::SmallVectorBase" = type { ptr, i32, i32 }
%"class.llvm::ilist_node_base" = type { %"class.llvm::ilist_detail::node_base_prevnext" }
%"class.llvm::ilist_detail::node_base_prevnext" = type { ptr, ptr }
%"class.llvm::SDValue" = type <{ ptr, i32, [4 x i8] }>
%"class.llvm::SmallVectorImpl.116" = type { %"class.llvm::SmallVectorTemplateBase.117" }
%"class.llvm::SmallVectorTemplateBase.117" = type { %"class.llvm::SmallVectorTemplateCommon.118" }
%"class.llvm::SmallVectorTemplateCommon.118" = type { %"class.llvm::SmallVectorBase" }
%"class.llvm::SmallVector.120" = type { %"class.llvm::SmallVectorImpl.116", %"struct.llvm::SmallVectorStorage.121" }
%"struct.llvm::SmallVectorStorage.121" = type { [128 x i8] }
%"class.llvm::SDNode" = type { %"class.llvm::FoldingSetBase::Node", %"class.llvm::ilist_node", i32, %"struct.llvm::SDNodeFlags", %union.anon.81, i16, i32, ptr, ptr, ptr, i16, i16, i32, %"class.llvm::DebugLoc", i32, i32 }
%"class.llvm::FoldingSetBase::Node" = type { ptr }
%"class.llvm::ilist_node" = type { %"class.llvm::ilist_node_impl" }
%"class.llvm::ilist_node_impl" = type { %"class.llvm::ilist_node_base" }
%"struct.llvm::SDNodeFlags" = type { i16 }
%union.anon.81 = type { %"class.llvm::SDNode::LSBaseSDNodeBitfields" }
%"class.llvm::SDNode::LSBaseSDNodeBitfields" = type { i16 }
%"class.llvm::DebugLoc" = type { %"class.llvm::TypedTrackingMDRef" }
%"class.llvm::TypedTrackingMDRef" = type { %"class.llvm::TrackingMDRef" }
%"class.llvm::TrackingMDRef" = type { ptr }
%"class.llvm::SelectionDAGBuilder" = type { ptr, %"class.llvm::DenseMap.362", %"class.llvm::DenseMap.362", %"class.llvm::MapVector", i8, %"class.llvm::SmallVector.120", %"class.llvm::StatepointLoweringState", %"class.llvm::SmallVector.120", %"class.llvm::SmallVector.120", %"class.llvm::SmallVector.120", i32, ptr, ptr, ptr, ptr, ptr, %"class.std::unique_ptr.381", %"class.llvm::StackProtectorDescriptor", %"class.llvm::DenseMap.389", ptr, ptr, ptr, %"class.llvm::DenseMap.392", i8, ptr }
%"class.llvm::DenseMap.362" = type <{ ptr, i32, i32, i32, [4 x i8] }>
%"class.llvm::MapVector" = type { %"class.llvm::DenseMap.365", %"class.llvm::SmallVector.368" }
%"class.llvm::DenseMap.365" = type <{ ptr, i32, i32, i32, [4 x i8] }>
%"class.llvm::SmallVector.368" = type { %"class.llvm::SmallVectorImpl.369" }
%"class.llvm::SmallVectorImpl.369" = type { %"class.llvm::SmallVectorTemplateBase.370" }
%"class.llvm::SmallVectorTemplateBase.370" = type { %"class.llvm::SmallVectorTemplateCommon.371" }
%"class.llvm::SmallVectorTemplateCommon.371" = type { %"class.llvm::SmallVectorBase" }
%"class.llvm::StatepointLoweringState" = type { %"class.llvm::DenseMap.373", %"class.llvm::SmallBitVector", i32, %"class.llvm::SmallVector.376" }
%"class.llvm::DenseMap.373" = type <{ ptr, i32, i32, i32, [4 x i8] }>
%"class.llvm::SmallBitVector" = type { i64 }
%"class.llvm::SmallVector.376" = type { %"class.llvm::SmallVectorImpl.377", %"struct.llvm::SmallVectorStorage.380" }
%"class.llvm::SmallVectorImpl.377" = type { %"class.llvm::SmallVectorTemplateBase.378" }
%"class.llvm::SmallVectorTemplateBase.378" = type { %"class.llvm::SmallVectorTemplateCommon.379" }
%"class.llvm::SmallVectorTemplateCommon.379" = type { %"class.llvm::SmallVectorBase" }
%"struct.llvm::SmallVectorStorage.380" = type { [80 x i8] }
%"class.std::unique_ptr.381" = type { %"struct.std::__uniq_ptr_data.382" }
%"struct.std::__uniq_ptr_data.382" = type { %"class.std::__uniq_ptr_impl.383" }
%"class.std::__uniq_ptr_impl.383" = type { %"class.std::tuple.384" }
%"class.std::tuple.384" = type { %"struct.std::_Tuple_impl.385" }
%"struct.std::_Tuple_impl.385" = type { %"struct.std::_Head_base.388" }
%"struct.std::_Head_base.388" = type { ptr }
%"class.llvm::StackProtectorDescriptor" = type { ptr, ptr, ptr }
%"class.llvm::DenseMap.389" = type <{ ptr, i32, i32, i32, [4 x i8] }>
%"class.llvm::DenseMap.392" = type <{ ptr, i32, i32, i32, [4 x i8] }>
%"class.llvm::FrameIndexSDNode" = type <{ %"class.llvm::SDNode", i32, [4 x i8] }>

; Function Attrs: mustprogress nounwind uwtable
define linkonce_odr hidden noundef i32 @_ZNK4llvm6SDNode9getOpcodeEv(ptr noundef nonnull align 8 dereferenceable(88) %0) #1 comdat align 2 {
  %2 = alloca ptr, align 8
  store ptr %0, ptr %2, align 8
  %3 = load ptr, ptr %2, align 8
  %4 = getelementptr inbounds nuw %"class.llvm::SDNode", ptr %3, i32 0, i32 2
  %5 = load i32, ptr %4, align 8
  ret i32 %5
}

; Function Attrs: mustprogress nounwind uwtable
define linkonce_odr hidden noundef zeroext i1 @_ZN4llvm16FrameIndexSDNode7classofEPKNS_6SDNodeE(ptr noundef %0) #1 comdat align 2 {
  %2 = alloca ptr, align 8
  store ptr %0, ptr %2, align 8
  %3 = load ptr, ptr %2, align 8
  %4 = call noundef i32 @_ZNK4llvm6SDNode9getOpcodeEv(ptr noundef nonnull align 8 dereferenceable(88) %3)
  %5 = icmp eq i32 %4, 15
  br i1 %5, label %10, label %6

6:                                                ; preds = %1
  %7 = load ptr, ptr %2, align 8
  %8 = call noundef i32 @_ZNK4llvm6SDNode9getOpcodeEv(ptr noundef nonnull align 8 dereferenceable(88) %7)
  %9 = icmp eq i32 %8, 39
  br label %10

10:                                               ; preds = %6, %1
  %11 = phi i1 [ true, %1 ], [ %9, %6 ]
  ret i1 %11
}

; Function Attrs: mustprogress nounwind uwtable
define linkonce_odr hidden noundef zeroext i1 @_ZN4llvm8isa_implINS_16FrameIndexSDNodeENS_6SDNodeEvE4doitERKS2_(ptr noundef nonnull align 8 dereferenceable(88) %0) #1 comdat align 2 {
  %2 = alloca ptr, align 8
  store ptr %0, ptr %2, align 8
  %3 = load ptr, ptr %2, align 8
  %4 = call noundef zeroext i1 @_ZN4llvm16FrameIndexSDNode7classofEPKNS_6SDNodeE(ptr noundef %3)
  ret i1 %4
}

; Function Attrs: mustprogress nounwind uwtable
define linkonce_odr hidden noundef zeroext i1 @_ZN4llvm11isa_impl_clINS_16FrameIndexSDNodeEPKNS_6SDNodeEE4doitES4_(ptr noundef %0) #1 comdat align 2 {
  %2 = alloca ptr, align 8
  store ptr %0, ptr %2, align 8
  %3 = load ptr, ptr %2, align 8
  %4 = call noundef zeroext i1 @_ZN4llvm8isa_implINS_16FrameIndexSDNodeENS_6SDNodeEvE4doitERKS2_(ptr noundef nonnull align 8 dereferenceable(88) %3)
  ret i1 %4
}

; Function Attrs: mustprogress nounwind uwtable
define linkonce_odr hidden noundef nonnull align 8 dereferenceable(8) ptr @_ZN4llvm13simplify_typeIPNS_6SDNodeEE18getSimplifiedValueERS2_(ptr noundef nonnull align 8 dereferenceable(8) %0) #1 comdat align 2 {
  %2 = alloca ptr, align 8
  store ptr %0, ptr %2, align 8
  %3 = load ptr, ptr %2, align 8
  ret ptr %3
}

; Function Attrs: mustprogress nounwind uwtable
define linkonce_odr hidden noundef zeroext i1 @_ZN4llvm13isa_impl_wrapINS_16FrameIndexSDNodeEPKNS_6SDNodeES4_E4doitERKS4_(ptr noundef nonnull align 8 dereferenceable(8) %0) #1 comdat align 2 {
  %2 = alloca ptr, align 8
  store ptr %0, ptr %2, align 8
  %3 = load ptr, ptr %2, align 8
  %4 = load ptr, ptr %3, align 8
  %5 = call noundef zeroext i1 @_ZN4llvm11isa_impl_clINS_16FrameIndexSDNodeEPKNS_6SDNodeEE4doitES4_(ptr noundef %4)
  ret i1 %5
}

; Function Attrs: mustprogress nounwind uwtable
define linkonce_odr hidden noundef ptr @_ZN4llvm13simplify_typeIKPNS_6SDNodeEE18getSimplifiedValueERS3_(ptr noundef nonnull align 8 dereferenceable(8) %0) #1 comdat align 2 {
  %2 = alloca ptr, align 8
  store ptr %0, ptr %2, align 8
  %3 = load ptr, ptr %2, align 8
  %4 = call noundef nonnull align 8 dereferenceable(8) ptr @_ZN4llvm13simplify_typeIPNS_6SDNodeEE18getSimplifiedValueERS2_(ptr noundef nonnull align 8 dereferenceable(8) %3)
  %5 = load ptr, ptr %4, align 8
  ret ptr %5
}

; Function Attrs: mustprogress nounwind uwtable
define linkonce_odr hidden noundef ptr @_ZN4llvm16cast_convert_valINS_16FrameIndexSDNodeEPNS_6SDNodeES3_E4doitEPKS2_(ptr noundef %0) #1 comdat align 2 {
  %2 = alloca ptr, align 8
  store ptr %0, ptr %2, align 8
  %3 = load ptr, ptr %2, align 8
  ret ptr %3
}

; Function Attrs: mustprogress nounwind uwtable
define linkonce_odr hidden noundef zeroext i1 @_ZN4llvm13isa_impl_wrapINS_16FrameIndexSDNodeEKPNS_6SDNodeEPKS2_E4doitERS4_(ptr noundef nonnull align 8 dereferenceable(8) %0) #1 comdat align 2 {
  %2 = alloca ptr, align 8
  %3 = alloca ptr, align 8
  store ptr %0, ptr %2, align 8
  %4 = load ptr, ptr %2, align 8
  %5 = call noundef ptr @_ZN4llvm13simplify_typeIKPNS_6SDNodeEE18getSimplifiedValueERS3_(ptr noundef nonnull align 8 dereferenceable(8) %4)
  store ptr %5, ptr %3, align 8
  %6 = call noundef zeroext i1 @_ZN4llvm13isa_impl_wrapINS_16FrameIndexSDNodeEPKNS_6SDNodeES4_E4doitERKS4_(ptr noundef nonnull align 8 dereferenceable(8) %3)
  ret i1 %6
}

; Function Attrs: mustprogress nounwind uwtable
define linkonce_odr hidden noundef ptr @_ZN4llvm8CastInfoINS_16FrameIndexSDNodeEPNS_6SDNodeEvE6doCastERKS3_(ptr noundef nonnull align 8 dereferenceable(8) %0) #1 comdat align 2 {
  %2 = alloca ptr, align 8
  store ptr %0, ptr %2, align 8
  %3 = load ptr, ptr %2, align 8
  %4 = load ptr, ptr %3, align 8
  %5 = call noundef ptr @_ZN4llvm16cast_convert_valINS_16FrameIndexSDNodeEPNS_6SDNodeES3_E4doitEPKS2_(ptr noundef %4)
  ret ptr %5
}

; Function Attrs: mustprogress nounwind uwtable
define linkonce_odr hidden noundef ptr @_ZN4llvm8CastInfoINS_16FrameIndexSDNodeEPNS_6SDNodeEvE10castFailedEv() #1 comdat align 2 {
  ret ptr null
}

; Function Attrs: mustprogress nounwind uwtable
define linkonce_odr hidden noundef zeroext i1 @_ZN4llvm14CastIsPossibleINS_16FrameIndexSDNodeEPNS_6SDNodeEvE10isPossibleERKS3_(ptr noundef nonnull align 8 dereferenceable(8) %0) #1 comdat align 2 {
  %2 = alloca ptr, align 8
  store ptr %0, ptr %2, align 8
  %3 = load ptr, ptr %2, align 8
  %4 = call noundef zeroext i1 @_ZN4llvm13isa_impl_wrapINS_16FrameIndexSDNodeEKPNS_6SDNodeEPKS2_E4doitERS4_(ptr noundef nonnull align 8 dereferenceable(8) %3)
  ret i1 %4
}

; Function Attrs: mustprogress nounwind uwtable
define linkonce_odr hidden noundef ptr @_ZN4llvm8CastInfoINS_16FrameIndexSDNodeEPNS_6SDNodeEvE16doCastIfPossibleERKS3_(ptr noundef nonnull align 8 dereferenceable(8) %0) #1 comdat align 2 {
  %2 = alloca ptr, align 8
  %3 = alloca ptr, align 8
  store ptr %0, ptr %3, align 8
  %4 = load ptr, ptr %3, align 8
  %5 = call noundef zeroext i1 @_ZN4llvm14CastIsPossibleINS_16FrameIndexSDNodeEPNS_6SDNodeEvE10isPossibleERKS3_(ptr noundef nonnull align 8 dereferenceable(8) %4)
  br i1 %5, label %8, label %6

6:                                                ; preds = %1
  %7 = call noundef ptr @_ZN4llvm8CastInfoINS_16FrameIndexSDNodeEPNS_6SDNodeEvE10castFailedEv()
  store ptr %7, ptr %2, align 8
  br label %11

8:                                                ; preds = %1
  %9 = load ptr, ptr %3, align 8
  %10 = call noundef ptr @_ZN4llvm8CastInfoINS_16FrameIndexSDNodeEPNS_6SDNodeEvE6doCastERKS3_(ptr noundef nonnull align 8 dereferenceable(8) %9)
  store ptr %10, ptr %2, align 8
  br label %11

11:                                               ; preds = %8, %6
  %12 = load ptr, ptr %2, align 8
  ret ptr %12
}

; Function Attrs: mustprogress nounwind uwtable
define linkonce_odr hidden noundef i32 @_ZNK4llvm7SDValue8getResNoEv(ptr noundef nonnull align 8 dereferenceable(12) %0) #1 comdat align 2 {
  %2 = alloca ptr, align 8
  store ptr %0, ptr %2, align 8
  %3 = load ptr, ptr %2, align 8
  %4 = getelementptr inbounds nuw %"class.llvm::SDValue", ptr %3, i32 0, i32 1
  %5 = load i32, ptr %4, align 8
  ret i32 %5
}

; Function Attrs: mustprogress nounwind uwtable
define linkonce_odr hidden noundef i32 @_ZNK4llvm16FrameIndexSDNode8getIndexEv(ptr noundef nonnull align 8 dereferenceable(92) %0) #1 comdat align 2 {
  %2 = alloca ptr, align 8
  store ptr %0, ptr %2, align 8
  %3 = load ptr, ptr %2, align 8
  %4 = getelementptr inbounds nuw %"class.llvm::FrameIndexSDNode", ptr %3, i32 0, i32 1
  %5 = load i32, ptr %4, align 8
  ret i32 %5
}

; Function Attrs: mustprogress nounwind uwtable
define linkonce_odr hidden noundef ptr @_ZN4llvm8dyn_castINS_16FrameIndexSDNodeENS_6SDNodeEEEDcPT0_(ptr noundef %0) #1 comdat {
  %2 = alloca ptr, align 8
  store ptr %0, ptr %2, align 8
  %3 = call noundef ptr @_ZN4llvm8CastInfoINS_16FrameIndexSDNodeEPNS_6SDNodeEvE16doCastIfPossibleERKS3_(ptr noundef nonnull align 8 dereferenceable(8) %2)
  ret ptr %3
}

; Function Attrs: mustprogress nounwind uwtable
define linkonce_odr hidden noundef ptr @_ZNK4llvm7SDValue7getNodeEv(ptr noundef nonnull align 8 dereferenceable(12) %0) #1 comdat align 2 {
  %2 = alloca ptr, align 8
  store ptr %0, ptr %2, align 8
  %3 = load ptr, ptr %2, align 8
  %4 = getelementptr inbounds nuw %"class.llvm::SDValue", ptr %3, i32 0, i32 0
  %5 = load ptr, ptr %4, align 8
  ret ptr %5
}

; Function Attrs: mustprogress nounwind uwtable
define dso_local noundef ptr @_ZN4llvm19SelectionDAGBuilder11getDbgValueENS_7SDValueEPNS_15DILocalVariableEPNS_12DIExpressionERKNS_8DebugLocEj(ptr noundef nonnull align 8 dereferenceable(984) %0, ptr %1, i32 %2, ptr noundef %3, ptr noundef %4, ptr noundef nonnull align 8 dereferenceable(8) %5, i32 noundef %6) #1 align 2 {
  %8 = alloca ptr, align 8
  %9 = alloca %"class.llvm::SDValue", align 8
  %10 = alloca ptr, align 8
  %11 = alloca ptr, align 8
  %12 = alloca ptr, align 8
  %13 = alloca ptr, align 8
  %14 = alloca i32, align 4
  %15 = alloca ptr, align 8
  %16 = getelementptr inbounds nuw { ptr, i32 }, ptr %9, i32 0, i32 0
  store ptr %1, ptr %16, align 8
  %17 = getelementptr inbounds nuw { ptr, i32 }, ptr %9, i32 0, i32 1
  store i32 %2, ptr %17, align 8
  store ptr %0, ptr %10, align 8
  store ptr %3, ptr %11, align 8
  store ptr %4, ptr %12, align 8
  store ptr %5, ptr %13, align 8
  store i32 %6, ptr %14, align 4
  %18 = load ptr, ptr %10, align 8
  %19 = call noundef ptr @_ZNK4llvm7SDValue7getNodeEv(ptr noundef nonnull align 8 dereferenceable(12) %9)
  %20 = call noundef ptr @_ZN4llvm8dyn_castINS_16FrameIndexSDNodeENS_6SDNodeEEEDcPT0_(ptr noundef %19)
  store ptr %20, ptr %15, align 8
  %21 = load ptr, ptr %15, align 8
  %22 = icmp ne ptr %21, null
  br i1 %22, label %23, label %33

23:                                               ; preds = %7
  %24 = getelementptr inbounds nuw %"class.llvm::SelectionDAGBuilder", ptr %18, i32 0, i32 12
  %25 = load ptr, ptr %24, align 8
  %26 = load ptr, ptr %11, align 8
  %27 = load ptr, ptr %12, align 8
  %28 = load ptr, ptr %15, align 8
  %29 = call noundef i32 @_ZNK4llvm16FrameIndexSDNode8getIndexEv(ptr noundef nonnull align 8 dereferenceable(92) %28)
  %30 = load ptr, ptr %13, align 8
  %31 = load i32, ptr %14, align 4
  %32 = call noundef ptr @_ZN4llvm12SelectionDAG21getFrameIndexDbgValueEPNS_10DIVariableEPNS_12DIExpressionEjbRKNS_8DebugLocEj(ptr noundef nonnull align 8 dereferenceable(904) %25, ptr noundef %26, ptr noundef %27, i32 noundef %29, i1 noundef zeroext false, ptr noundef nonnull align 8 dereferenceable(8) %30, i32 noundef %31)
  store ptr %32, ptr %8, align 8
  br label %43

33:                                               ; preds = %7
  %34 = getelementptr inbounds nuw %"class.llvm::SelectionDAGBuilder", ptr %18, i32 0, i32 12
  %35 = load ptr, ptr %34, align 8
  %36 = load ptr, ptr %11, align 8
  %37 = load ptr, ptr %12, align 8
  %38 = call noundef ptr @_ZNK4llvm7SDValue7getNodeEv(ptr noundef nonnull align 8 dereferenceable(12) %9)
  %39 = call noundef i32 @_ZNK4llvm7SDValue8getResNoEv(ptr noundef nonnull align 8 dereferenceable(12) %9)
  %40 = load ptr, ptr %13, align 8
  %41 = load i32, ptr %14, align 4
  %42 = call noundef ptr @_ZN4llvm12SelectionDAG11getDbgValueEPNS_10DIVariableEPNS_12DIExpressionEPNS_6SDNodeEjbRKNS_8DebugLocEj(ptr noundef nonnull align 8 dereferenceable(904) %35, ptr noundef %36, ptr noundef %37, ptr noundef %38, i32 noundef %39, i1 noundef zeroext false, ptr noundef nonnull align 8 dereferenceable(8) %40, i32 noundef %41)
  store ptr %42, ptr %8, align 8
  br label %43

43:                                               ; preds = %33, %23
  %44 = load ptr, ptr %8, align 8
  ret ptr %44
}