; Function Attrs: mustprogress nounwind uwtable
define dso_local noundef ptr @_ZN4llvm19SelectionDAGBuilder11getDbgValueENS_7SDValueEPNS_15DILocalVariableEPNS_12DIExpressionERKNS_8DebugLocEj(ptr nocapture noundef nonnull readonly align 8 dereferenceable(984) %0, ptr %1, i32 %2, ptr noundef %3, ptr noundef %4, ptr noundef nonnull align 8 dereferenceable(8) %5, i32 noundef %6) local_unnamed_addr #0 align 2 {
  %8 = getelementptr inbounds nuw i8, ptr %1, i64 24
  %9 = load i32, ptr %8, align 8
  switch i32 %9, label %15 [
    i32 39, label %_ZN4llvm8dyn_castINS_16FrameIndexSDNodeENS_6SDNodeEEEDcPT0_.exit
    i32 15, label %_ZN4llvm8dyn_castINS_16FrameIndexSDNodeENS_6SDNodeEEEDcPT0_.exit
  ]

_ZN4llvm8dyn_castINS_16FrameIndexSDNodeENS_6SDNodeEEEDcPT0_.exit: ; preds = %7, %7
  %10 = getelementptr inbounds nuw i8, ptr %0, i64 832
  %11 = load ptr, ptr %10, align 8
  %12 = getelementptr inbounds nuw i8, ptr %1, i64 88
  %13 = load i32, ptr %12, align 8
  %14 = tail call noundef ptr @_ZN4llvm12SelectionDAG21getFrameIndexDbgValueEPNS_10DIVariableEPNS_12DIExpressionEjbRKNS_8DebugLocEj(ptr noundef nonnull align 8 dereferenceable(904) %11, ptr noundef %3, ptr noundef %4, i32 noundef %13, i1 noundef zeroext false, ptr noundef nonnull align 8 dereferenceable(8) %5, i32 noundef %6) #32
  br label %19

15:                                               ; preds = %7
  %16 = getelementptr inbounds nuw i8, ptr %0, i64 832
  %17 = load ptr, ptr %16, align 8
  %18 = tail call noundef ptr @_ZN4llvm12SelectionDAG11getDbgValueEPNS_10DIVariableEPNS_12DIExpressionEPNS_6SDNodeEjbRKNS_8DebugLocEj(ptr noundef nonnull align 8 dereferenceable(904) %17, ptr noundef %3, ptr noundef %4, ptr noundef nonnull %1, i32 noundef %2, i1 noundef zeroext false, ptr noundef nonnull align 8 dereferenceable(8) %5, i32 noundef %6) #32
  br label %19

19:                                               ; preds = %15, %_ZN4llvm8dyn_castINS_16FrameIndexSDNodeENS_6SDNodeEEEDcPT0_.exit
  %.0 = phi ptr [ %14, %_ZN4llvm8dyn_castINS_16FrameIndexSDNodeENS_6SDNodeEEEDcPT0_.exit ], [ %18, %15 ]
  ret ptr %.0
}